(dp1
S'width'
p2
I2
sS'length'
p3
I10
sS'resolution'
p4
I200
sS'data'
p5
(lp6
(lp7
F0
aF0
aF0
aF0.10000000000000001
aa(lp8
F0.10000000000000001
aF0.10000000000000001
aF0.20000000000000001
aF0.10000000000000001
aa(lp9
F0.20000000000000001
aF0.10000000000000001
aF0.40000000000000002
aF0.10000000000000001
aa(lp10
F0.29999999999999999
aF0.10000000000000001
aF0.59999999999999998
aF0.10000000000000001
aa(lp11
F0.40000000000000002
aF0.10000000000000001
aF0.80000000000000004
aF0.10000000000000001
aa(lp12
F0.5
aF0.29999999999999999
aF0.80000000000000004
aF0.10000000000000001
aa(lp13
F0.59999999999999998
aF0.59999999999999998
aF0.59999999999999998
aF0.10000000000000001
aa(lp14
F0.69999999999999996
aF0.90000000000000002
aF0.40000000000000002
aF0.10000000000000001
aa(lp15
F0.80000000000000004
aF0.90000000000000002
aF0.20000000000000001
aF0.10000000000000001
aa(lp16
F0.90000000000000002
aF0.90000000000000002
aF0
aF0.10000000000000001
aasS'height'
p17
I2
s.
